target datalayout = "e-m:e-p270:32:32-p271:32:32-p272:64:64-i64:64-i128:128-f80:128-n8:16:32:64-S128"
target triple = "x86_64-pc-linux-gnu"

%struct.pmix_value = type { i16, %union.anon }
%union.anon = type { %struct.pmix_envar_t }
%struct.pmix_envar_t = type { ptr, ptr, i8 }
%struct.pmix_proc = type { [256 x i8], i32 }
%struct.pmix_pdata = type { %struct.pmix_proc, [512 x i8], %struct.pmix_value }

; Function Attrs: inlinehint nounwind uwtable
define internal void @pmix_strncpy(ptr noundef %0, ptr noundef %1, i64 noundef %2) #3 {
  %4 = alloca ptr, align 8
  %5 = alloca ptr, align 8
  %6 = alloca i64, align 8
  %7 = alloca i64, align 8
  store ptr %0, ptr %4, align 8, !tbaa !33
  store ptr %1, ptr %5, align 8, !tbaa !33
  store i64 %2, ptr %6, align 8, !tbaa !25
  call void @llvm.lifetime.start.p0(i64 8, ptr %7) #11
  store i64 0, ptr %7, align 8, !tbaa !25
  br label %8

8:                                                ; preds = %22, %3
  %9 = load i64, ptr %7, align 8, !tbaa !25
  %10 = load i64, ptr %6, align 8, !tbaa !25
  %11 = icmp ult i64 %9, %10
  br i1 %11, label %12, label %29

12:                                               ; preds = %8
  %13 = load ptr, ptr %5, align 8, !tbaa !33
  %14 = load i8, ptr %13, align 1, !tbaa !59
  %15 = load ptr, ptr %4, align 8, !tbaa !33
  store i8 %14, ptr %15, align 1, !tbaa !59
  %16 = load ptr, ptr %5, align 8, !tbaa !33
  %17 = load i8, ptr %16, align 1, !tbaa !59
  %18 = sext i8 %17 to i32
  %19 = icmp eq i32 0, %18
  br i1 %19, label %20, label %21

20:                                               ; preds = %12
  br label %29

21:                                               ; preds = %12
  br label %22

22:                                               ; preds = %21
  %23 = load i64, ptr %7, align 8, !tbaa !25
  %24 = add i64 %23, 1
  store i64 %24, ptr %7, align 8, !tbaa !25
  %25 = load ptr, ptr %5, align 8, !tbaa !33
  %26 = getelementptr inbounds nuw i8, ptr %25, i32 1
  store ptr %26, ptr %5, align 8, !tbaa !33
  %27 = load ptr, ptr %4, align 8, !tbaa !33
  %28 = getelementptr inbounds nuw i8, ptr %27, i32 1
  store ptr %28, ptr %4, align 8, !tbaa !33
  br label %8, !llvm.loop !60

29:                                               ; preds = %20, %8
  %30 = load ptr, ptr %4, align 8, !tbaa !33
  store i8 0, ptr %30, align 1, !tbaa !59
  call void @llvm.lifetime.end.p0(i64 8, ptr %7) #11
  ret void
}

; Function Attrs: nounwind uwtable
define i32 @pmix_bfrops_base_copy_pdata(ptr noundef %0, ptr noundef %1, i16 noundef zeroext %2) #0 {
  %4 = alloca ptr, align 8
  %5 = alloca ptr, align 8
  %6 = alloca i16, align 2
  store ptr %0, ptr %4, align 8, !tbaa !101
  store ptr %1, ptr %5, align 8, !tbaa !103
  store i16 %2, ptr %6, align 2, !tbaa !9
  %7 = call noalias ptr @malloc(i64 noundef 808) #12
  %8 = load ptr, ptr %4, align 8, !tbaa !101
  store ptr %7, ptr %8, align 8, !tbaa !103
  %9 = load ptr, ptr %4, align 8, !tbaa !101
  %10 = load ptr, ptr %9, align 8, !tbaa !103
  %11 = getelementptr inbounds nuw %struct.pmix_pdata, ptr %10, i32 0, i32 0
  %12 = getelementptr inbounds nuw %struct.pmix_proc, ptr %11, i32 0, i32 0
  %13 = getelementptr inbounds [256 x i8], ptr %12, i64 0, i64 0
  %14 = load ptr, ptr %5, align 8, !tbaa !103
  %15 = getelementptr inbounds nuw %struct.pmix_pdata, ptr %14, i32 0, i32 0
  %16 = getelementptr inbounds nuw %struct.pmix_proc, ptr %15, i32 0, i32 0
  %17 = getelementptr inbounds [256 x i8], ptr %16, i64 0, i64 0
  call void @pmix_strncpy(ptr noundef %13, ptr noundef %17, i64 noundef 255)
  %18 = load ptr, ptr %5, align 8, !tbaa !103
  %19 = getelementptr inbounds nuw %struct.pmix_pdata, ptr %18, i32 0, i32 0
  %20 = getelementptr inbounds nuw %struct.pmix_proc, ptr %19, i32 0, i32 1
  %21 = load i32, ptr %20, align 8, !tbaa !105
  %22 = load ptr, ptr %4, align 8, !tbaa !101
  %23 = load ptr, ptr %22, align 8, !tbaa !103
  %24 = getelementptr inbounds nuw %struct.pmix_pdata, ptr %23, i32 0, i32 0
  %25 = getelementptr inbounds nuw %struct.pmix_proc, ptr %24, i32 0, i32 1
  store i32 %21, ptr %25, align 8, !tbaa !105
  %26 = load ptr, ptr %4, align 8, !tbaa !101
  %27 = load ptr, ptr %26, align 8, !tbaa !103
  %28 = getelementptr inbounds nuw %struct.pmix_pdata, ptr %27, i32 0, i32 1
  %29 = getelementptr inbounds [512 x i8], ptr %28, i64 0, i64 0
  %30 = load ptr, ptr %5, align 8, !tbaa !103
  %31 = getelementptr inbounds nuw %struct.pmix_pdata, ptr %30, i32 0, i32 1
  %32 = getelementptr inbounds [512 x i8], ptr %31, i64 0, i64 0
  call void @pmix_strncpy(ptr noundef %29, ptr noundef %32, i64 noundef 511)
  %33 = load ptr, ptr %4, align 8, !tbaa !101
  %34 = load ptr, ptr %33, align 8, !tbaa !103
  %35 = getelementptr inbounds nuw %struct.pmix_pdata, ptr %34, i32 0, i32 2
  %36 = load ptr, ptr %5, align 8, !tbaa !103
  %37 = getelementptr inbounds nuw %struct.pmix_pdata, ptr %36, i32 0, i32 2
  %38 = call i32 @pmix_bfrops_base_value_xfer(ptr noundef %35, ptr noundef %37)
  ret i32 %38
}