; Function Attrs: nounwind uwtable
define i32 @pmix_bfrops_base_copy_pdata(ptr noundef captures(none) initializes((0, 8)) %0, ptr noundef %1, i16 noundef zeroext %2) local_unnamed_addr #0 {
  %4 = tail call noalias dereferenceable_or_null(808) ptr @malloc(i64 noundef 808) #25
  store ptr %4, ptr %0, align 8, !tbaa !80
  br label %5

5:                                                ; preds = %8, %3
  %.012.i = phi i64 [ 0, %3 ], [ %9, %8 ]
  %.0811.i = phi ptr [ %4, %3 ], [ %11, %8 ]
  %.0910.i = phi ptr [ %1, %3 ], [ %10, %8 ]
  %6 = load i8, ptr %.0910.i, align 1, !tbaa !48
  store i8 %6, ptr %.0811.i, align 1, !tbaa !48
  %7 = icmp eq i8 %6, 0
  br i1 %7, label %pmix_strncpy.exit, label %8

8:                                                ; preds = %5
  %9 = add nuw nsw i64 %.012.i, 1
  %10 = getelementptr inbounds nuw i8, ptr %.0910.i, i64 1
  %11 = getelementptr inbounds nuw i8, ptr %.0811.i, i64 1
  %exitcond.not.i = icmp eq i64 %9, 255
  br i1 %exitcond.not.i, label %pmix_strncpy.exit, label %5, !llvm.loop !49

pmix_strncpy.exit:                                ; preds = %5, %8
  %.08.lcssa.i = phi ptr [ %.0811.i, %5 ], [ %11, %8 ]
  store i8 0, ptr %.08.lcssa.i, align 1, !tbaa !48
  %12 = getelementptr inbounds nuw i8, ptr %1, i64 256
  %13 = load i32, ptr %12, align 8, !tbaa !82
  %14 = load ptr, ptr %0, align 8, !tbaa !80
  %15 = getelementptr inbounds nuw i8, ptr %14, i64 256
  store i32 %13, ptr %15, align 8, !tbaa !82
  %16 = getelementptr inbounds nuw i8, ptr %14, i64 260
  %17 = getelementptr inbounds nuw i8, ptr %1, i64 260
  br label %18

18:                                               ; preds = %21, %pmix_strncpy.exit
  %.012.i9 = phi i64 [ 0, %pmix_strncpy.exit ], [ %22, %21 ]
  %.0811.i10 = phi ptr [ %16, %pmix_strncpy.exit ], [ %24, %21 ]
  %.0910.i11 = phi ptr [ %17, %pmix_strncpy.exit ], [ %23, %21 ]
  %19 = load i8, ptr %.0910.i11, align 1, !tbaa !48
  store i8 %19, ptr %.0811.i10, align 1, !tbaa !48
  %20 = icmp eq i8 %19, 0
  br i1 %20, label %pmix_strncpy.exit14, label %21

21:                                               ; preds = %18
  %22 = add nuw nsw i64 %.012.i9, 1
  %23 = getelementptr inbounds nuw i8, ptr %.0910.i11, i64 1
  %24 = getelementptr inbounds nuw i8, ptr %.0811.i10, i64 1
  %exitcond.not.i12 = icmp eq i64 %22, 511
  br i1 %exitcond.not.i12, label %pmix_strncpy.exit14, label %18, !llvm.loop !49

pmix_strncpy.exit14:                              ; preds = %18, %21
  %.08.lcssa.i13 = phi ptr [ %.0811.i10, %18 ], [ %24, %21 ]
  store i8 0, ptr %.08.lcssa.i13, align 1, !tbaa !48
  %25 = load ptr, ptr %0, align 8, !tbaa !80
  %26 = getelementptr inbounds nuw i8, ptr %25, i64 776
  %27 = getelementptr inbounds nuw i8, ptr %1, i64 776
  %28 = tail call i32 @pmix_bfrops_base_value_xfer(ptr noundef nonnull %26, ptr noundef nonnull %27) #23
  ret i32 %28
}